target datalayout = "e-m:e-p270:32:32-p271:32:32-p272:64:64-i64:64-i128:128-f80:128-n8:16:32:64-S128"
target triple = "x86_64-pc-linux-gnu"

%class.QWidget = type { %class.QObject, %class.QPaintDevice, ptr }
%class.QObject = type { ptr, %class.QScopedPointer }
%class.QScopedPointer = type { ptr }
%class.QPaintDevice = type { ptr, i16, ptr }
%struct.QListData = type { ptr }
%class.QList.4 = type { %union.anon.6 }
%union.anon.6 = type { %struct.QListData }
%class.QFrame = type { %class.QWidget }
%class.MLRenderingSolidParametersFrame = type { %class.MLRenderingParametersFrame.base, ptr, ptr, ptr, ptr, ptr, ptr, ptr, ptr }
%class.MLRenderingParametersFrame.base = type <{ %class.QFrame, i32 }>

; Function Attrs: mustprogress uwtable
define linkonce_odr void @_ZN5QListIP7QActionE6appendERKS2_(ptr noundef nonnull align 8 dereferenceable(8) %0, ptr noundef nonnull align 8 dereferenceable(8) %1) #5 comdat align 2 {
  %3 = alloca ptr, align 8
  %4 = alloca ptr, align 8
  store ptr %0, ptr %3, align 8
  store ptr %1, ptr %4, align 8
  %5 = load ptr, ptr %3, align 8
  %6 = load ptr, ptr %4, align 8
  %7 = call noundef nonnull align 8 dereferenceable(8) ptr @_ZN5QListIP7QActionEpLERKS2_(ptr noundef nonnull align 8 dereferenceable(8) %5, ptr noundef nonnull align 8 dereferenceable(8) %6)
  ret void
}

; Function Attrs: mustprogress uwtable
define void @_ZN31MLRenderingSolidParametersFrame21allTopLevelGuiActionsER5QListIP7QActionE(ptr noundef nonnull align 8 dereferenceable(120) %0, ptr noundef nonnull align 8 dereferenceable(8) %1) unnamed_addr #5 align 2 personality ptr @__gxx_personality_v0 {
  %3 = alloca ptr, align 8
  %4 = alloca ptr, align 8
  %5 = alloca %class.QList.4, align 8
  %6 = alloca ptr, align 8
  %7 = alloca i32, align 4
  %8 = alloca %class.QList.4, align 8
  %9 = alloca %class.QList.4, align 8
  %10 = alloca %class.QList.4, align 8
  store ptr %0, ptr %3, align 8
  store ptr %1, ptr %4, align 8
  %11 = load ptr, ptr %3, align 8
  %12 = load ptr, ptr %4, align 8
  %13 = getelementptr inbounds %class.MLRenderingSolidParametersFrame, ptr %11, i32 0, i32 2
  %14 = load ptr, ptr %13, align 8
  call void @_ZN18MLRenderingToolbar18getTopLevelActionsEv(ptr dead_on_unwind writable sret(%class.QList.4) align 8 %5, ptr noundef nonnull align 8 dereferenceable(96) %14)
  invoke void @_ZN5QListIP7QActionE6appendERKS2_(ptr noundef nonnull align 8 dereferenceable(8) %12, ptr noundef nonnull align 8 dereferenceable(8) %5)
          to label %15 unwind label %28

15:                                               ; preds = %2
  call void @_ZN5QListIP7QActionED2Ev(ptr noundef nonnull align 8 dereferenceable(8) %5) #3
  %16 = load ptr, ptr %4, align 8
  %17 = getelementptr inbounds %class.MLRenderingSolidParametersFrame, ptr %11, i32 0, i32 4
  %18 = load ptr, ptr %17, align 8
  call void @_ZN18MLRenderingToolbar18getTopLevelActionsEv(ptr dead_on_unwind writable sret(%class.QList.4) align 8 %8, ptr noundef nonnull align 8 dereferenceable(96) %18)
  invoke void @_ZN5QListIP7QActionE6appendERKS2_(ptr noundef nonnull align 8 dereferenceable(8) %16, ptr noundef nonnull align 8 dereferenceable(8) %8)
          to label %19 unwind label %32

19:                                               ; preds = %15
  call void @_ZN5QListIP7QActionED2Ev(ptr noundef nonnull align 8 dereferenceable(8) %8) #3
  %20 = load ptr, ptr %4, align 8
  %21 = getelementptr inbounds %class.MLRenderingSolidParametersFrame, ptr %11, i32 0, i32 6
  %22 = load ptr, ptr %21, align 8
  call void @_ZN18MLRenderingToolbar18getTopLevelActionsEv(ptr dead_on_unwind writable sret(%class.QList.4) align 8 %9, ptr noundef nonnull align 8 dereferenceable(96) %22)
  invoke void @_ZN5QListIP7QActionE6appendERKS2_(ptr noundef nonnull align 8 dereferenceable(8) %20, ptr noundef nonnull align 8 dereferenceable(8) %9)
          to label %23 unwind label %36

23:                                               ; preds = %19
  call void @_ZN5QListIP7QActionED2Ev(ptr noundef nonnull align 8 dereferenceable(8) %9) #3
  %24 = load ptr, ptr %4, align 8
  %25 = getelementptr inbounds %class.MLRenderingSolidParametersFrame, ptr %11, i32 0, i32 8
  %26 = load ptr, ptr %25, align 8
  call void @_ZNK7QWidget7actionsEv(ptr dead_on_unwind writable sret(%class.QList.4) align 8 %10, ptr noundef nonnull align 8 dereferenceable(48) %26)
  invoke void @_ZN5QListIP7QActionE6appendERKS2_(ptr noundef nonnull align 8 dereferenceable(8) %24, ptr noundef nonnull align 8 dereferenceable(8) %10)
          to label %27 unwind label %40

27:                                               ; preds = %23
  call void @_ZN5QListIP7QActionED2Ev(ptr noundef nonnull align 8 dereferenceable(8) %10) #3
  ret void

28:                                               ; preds = %2
  %29 = landingpad { ptr, i32 }
          cleanup
  %30 = extractvalue { ptr, i32 } %29, 0
  store ptr %30, ptr %6, align 8
  %31 = extractvalue { ptr, i32 } %29, 1
  store i32 %31, ptr %7, align 4
  call void @_ZN5QListIP7QActionED2Ev(ptr noundef nonnull align 8 dereferenceable(8) %5) #3
  br label %44

32:                                               ; preds = %15
  %33 = landingpad { ptr, i32 }
          cleanup
  %34 = extractvalue { ptr, i32 } %33, 0
  store ptr %34, ptr %6, align 8
  %35 = extractvalue { ptr, i32 } %33, 1
  store i32 %35, ptr %7, align 4
  call void @_ZN5QListIP7QActionED2Ev(ptr noundef nonnull align 8 dereferenceable(8) %8) #3
  br label %44

36:                                               ; preds = %19
  %37 = landingpad { ptr, i32 }
          cleanup
  %38 = extractvalue { ptr, i32 } %37, 0
  store ptr %38, ptr %6, align 8
  %39 = extractvalue { ptr, i32 } %37, 1
  store i32 %39, ptr %7, align 4
  call void @_ZN5QListIP7QActionED2Ev(ptr noundef nonnull align 8 dereferenceable(8) %9) #3
  br label %44

40:                                               ; preds = %23
  %41 = landingpad { ptr, i32 }
          cleanup
  %42 = extractvalue { ptr, i32 } %41, 0
  store ptr %42, ptr %6, align 8
  %43 = extractvalue { ptr, i32 } %41, 1
  store i32 %43, ptr %7, align 4
  call void @_ZN5QListIP7QActionED2Ev(ptr noundef nonnull align 8 dereferenceable(8) %10) #3
  br label %44

44:                                               ; preds = %40, %36, %32, %28
  %45 = load ptr, ptr %6, align 8
  %46 = load i32, ptr %7, align 4
  %47 = insertvalue { ptr, i32 } poison, ptr %45, 0
  %48 = insertvalue { ptr, i32 } %47, i32 %46, 1
  resume { ptr, i32 } %48
}